; Function Attrs: mustprogress nounwind uwtable
define dso_local void @_ZN5clang18PPChainedCallbacksD2Ev(ptr noundef nonnull align 8 captures(none) dereferenceable(24) initializes((0, 8)) %0) unnamed_addr #1 align 2 {
  store ptr getelementptr inbounds nuw inrange(-16, 384) (i8, ptr @_ZTVN5clang18PPChainedCallbacksE, i64 16), ptr %0, align 8
  %2 = getelementptr inbounds nuw i8, ptr %0, i64 16
  %3 = load ptr, ptr %2, align 8
  %.not.i = icmp eq ptr %3, null
  br i1 %.not.i, label %_ZNSt10unique_ptrIN5clang11PPCallbacksESt14default_deleteIS1_EED2Ev.exit, label %_ZNKSt14default_deleteIN5clang11PPCallbacksEEclEPS1_.exit.i

_ZNKSt14default_deleteIN5clang11PPCallbacksEEclEPS1_.exit.i: ; preds = %1
  %4 = load ptr, ptr %3, align 8
  %5 = getelementptr inbounds nuw i8, ptr %4, i64 8
  %6 = load ptr, ptr %5, align 8
  tail call void %6(ptr noundef nonnull align 8 dereferenceable(8) %3) #3
  br label %_ZNSt10unique_ptrIN5clang11PPCallbacksESt14default_deleteIS1_EED2Ev.exit

_ZNSt10unique_ptrIN5clang11PPCallbacksESt14default_deleteIS1_EED2Ev.exit: ; preds = %1, %_ZNKSt14default_deleteIN5clang11PPCallbacksEEclEPS1_.exit.i
  store ptr null, ptr %2, align 8
  %7 = getelementptr inbounds nuw i8, ptr %0, i64 8
  %8 = load ptr, ptr %7, align 8
  %.not.i1 = icmp eq ptr %8, null
  br i1 %.not.i1, label %_ZNSt10unique_ptrIN5clang11PPCallbacksESt14default_deleteIS1_EED2Ev.exit3, label %_ZNKSt14default_deleteIN5clang11PPCallbacksEEclEPS1_.exit.i2

_ZNKSt14default_deleteIN5clang11PPCallbacksEEclEPS1_.exit.i2: ; preds = %_ZNSt10unique_ptrIN5clang11PPCallbacksESt14default_deleteIS1_EED2Ev.exit
  %9 = load ptr, ptr %8, align 8
  %10 = getelementptr inbounds nuw i8, ptr %9, i64 8
  %11 = load ptr, ptr %10, align 8
  tail call void %11(ptr noundef nonnull align 8 dereferenceable(8) %8) #3
  br label %_ZNSt10unique_ptrIN5clang11PPCallbacksESt14default_deleteIS1_EED2Ev.exit3

_ZNSt10unique_ptrIN5clang11PPCallbacksESt14default_deleteIS1_EED2Ev.exit3: ; preds = %_ZNSt10unique_ptrIN5clang11PPCallbacksESt14default_deleteIS1_EED2Ev.exit, %_ZNKSt14default_deleteIN5clang11PPCallbacksEEclEPS1_.exit.i2
  store ptr null, ptr %7, align 8
  ret void
}